target datalayout = "e-m:e-p270:32:32-p271:32:32-p272:64:64-i64:64-i128:128-f80:128-n8:16:32:64-S128"
target triple = "x86_64-pc-linux-gnu"

%class.nmethod = type <{ %class.CodeBlob.base, [2 x i8], i64, i64, ptr, %union.anon, ptr, ptr, ptr, ptr, ptr, ptr, ptr, i16, i16, i32, i32, i32, i32, i32, i32, i32, i16, i16, i16, i16, i16, i16, i32, i32, i32, i32, i32, i8, i8, i8, i8, i8, i8, [2 x i8] }>
%class.CodeBlob.base = type <{ ptr, ptr, ptr, i32, i32, i32, i32, i32, i32, i16, i16, i8, i8 }>
%union.anon = type { ptr }
%class.CodeBlob = type <{ ptr, ptr, ptr, i32, i32, i32, i32, i32, i32, i16, i16, i8, i8, [2 x i8] }>

; Function Attrs: mustprogress nounwind uwtable
define linkonce_odr hidden noundef ptr @_ZNK8CodeBlob12header_beginEv(ptr noundef nonnull align 8 dereferenceable(54) %0) #1 comdat align 2 {
  %2 = alloca ptr, align 8
  store ptr %0, ptr %2, align 8
  %3 = load ptr, ptr %2, align 8
  ret ptr %3
}

; Function Attrs: mustprogress nounwind uwtable
define linkonce_odr hidden noundef ptr @_ZNK7nmethod7gc_dataI12XNMethodDataEEPT_v(ptr noundef nonnull align 8 dereferenceable(214) %0) #1 comdat align 2 {
  %2 = alloca ptr, align 8
  store ptr %0, ptr %2, align 8
  %3 = load ptr, ptr %2, align 8
  %4 = getelementptr inbounds %class.nmethod, ptr %3, i32 0, i32 9
  %5 = load ptr, ptr %4, align 8
  ret ptr %5
}

; Function Attrs: mustprogress nounwind uwtable
define linkonce_odr hidden noundef ptr @_ZNK8CodeBlob10data_beginEv(ptr noundef nonnull align 8 dereferenceable(54) %0) #1 comdat align 2 {
  %2 = alloca ptr, align 8
  store ptr %0, ptr %2, align 8
  %3 = load ptr, ptr %2, align 8
  %4 = call noundef ptr @_ZNK8CodeBlob12header_beginEv(ptr noundef nonnull align 8 dereferenceable(54) %3)
  %5 = getelementptr inbounds %class.CodeBlob, ptr %3, i32 0, i32 7
  %6 = load i32, ptr %5, align 8
  %7 = sext i32 %6 to i64
  %8 = getelementptr inbounds i8, ptr %4, i64 %7
  ret ptr %8
}

; Function Attrs: mustprogress nounwind uwtable
define linkonce_odr hidden void @_ZN7nmethod19fix_oop_relocationsEv(ptr noundef nonnull align 8 dereferenceable(214) %0) #1 comdat align 2 {
  %2 = alloca ptr, align 8
  store ptr %0, ptr %2, align 8
  %3 = load ptr, ptr %2, align 8
  call void @_ZN7nmethod19fix_oop_relocationsEPhS0_b(ptr noundef nonnull align 8 dereferenceable(214) %3, ptr noundef null, ptr noundef null, i1 noundef zeroext false)
  ret void
}

; Function Attrs: mustprogress nounwind uwtable
define internal noundef ptr @_ZL7gc_dataPK7nmethod(ptr noundef %0) #1 {
  %2 = alloca ptr, align 8
  store ptr %0, ptr %2, align 8
  %3 = load ptr, ptr %2, align 8
  %4 = call noundef ptr @_ZNK7nmethod7gc_dataI12XNMethodDataEEPT_v(ptr noundef nonnull align 8 dereferenceable(214) %3)
  ret ptr %4
}

; Function Attrs: mustprogress nounwind uwtable
define linkonce_odr hidden noundef ptr @_ZNK7nmethod8oops_endEv(ptr noundef nonnull align 8 dereferenceable(214) %0) #1 comdat align 2 {
  %2 = alloca ptr, align 8
  store ptr %0, ptr %2, align 8
  %3 = load ptr, ptr %2, align 8
  %4 = call noundef ptr @_ZNK8CodeBlob10data_beginEv(ptr noundef nonnull align 8 dereferenceable(54) %3)
  %5 = getelementptr inbounds %class.nmethod, ptr %3, i32 0, i32 24
  %6 = load i16, ptr %5, align 4
  %7 = zext i16 %6 to i32
  %8 = sext i32 %7 to i64
  %9 = getelementptr inbounds i8, ptr %4, i64 %8
  ret ptr %9
}

; Function Attrs: mustprogress nounwind uwtable
define linkonce_odr hidden noundef ptr @_ZNK7nmethod10oops_beginEv(ptr noundef nonnull align 8 dereferenceable(214) %0) #1 comdat align 2 {
  %2 = alloca ptr, align 8
  store ptr %0, ptr %2, align 8
  %3 = load ptr, ptr %2, align 8
  %4 = call noundef ptr @_ZNK8CodeBlob10data_beginEv(ptr noundef nonnull align 8 dereferenceable(54) %3)
  ret ptr %4
}

; Function Attrs: mustprogress nounwind uwtable
define hidden void @_ZN8XNMethod21nmethod_oops_do_innerEP7nmethodP10OopClosure(ptr noundef %0, ptr noundef %1) #1 align 2 {
  %3 = alloca ptr, align 8
  %4 = alloca ptr, align 8
  %5 = alloca ptr, align 8
  %6 = alloca ptr, align 8
  %7 = alloca ptr, align 8
  %8 = alloca ptr, align 8
  %9 = alloca ptr, align 8
  %10 = alloca ptr, align 8
  %11 = alloca ptr, align 8
  store ptr %0, ptr %3, align 8
  store ptr %1, ptr %4, align 8
  %12 = load ptr, ptr %3, align 8
  %13 = call noundef ptr @_ZNK7nmethod10oops_beginEv(ptr noundef nonnull align 8 dereferenceable(214) %12)
  store ptr %13, ptr %5, align 8
  %14 = load ptr, ptr %3, align 8
  %15 = call noundef ptr @_ZNK7nmethod8oops_endEv(ptr noundef nonnull align 8 dereferenceable(214) %14)
  store ptr %15, ptr %6, align 8
  %16 = load ptr, ptr %5, align 8
  store ptr %16, ptr %7, align 8
  br label %17

17:                                               ; preds = %31, %2
  %18 = load ptr, ptr %7, align 8
  %19 = load ptr, ptr %6, align 8
  %20 = icmp ult ptr %18, %19
  br i1 %20, label %21, label %34

21:                                               ; preds = %17
  %22 = load ptr, ptr %7, align 8
  %23 = call noundef zeroext i1 @_ZN8Universe21contains_non_oop_wordEPv(ptr noundef %22)
  br i1 %23, label %30, label %24

24:                                               ; preds = %21
  %25 = load ptr, ptr %4, align 8
  %26 = load ptr, ptr %7, align 8
  %27 = load ptr, ptr %25, align 8
  %28 = getelementptr inbounds ptr, ptr %27, i64 0
  %29 = load ptr, ptr %28, align 8
  call void %29(ptr noundef nonnull align 8 dereferenceable(8) %25, ptr noundef %26)
  br label %30

30:                                               ; preds = %24, %21
  br label %31

31:                                               ; preds = %30
  %32 = load ptr, ptr %7, align 8
  %33 = getelementptr inbounds ptr, ptr %32, i32 1
  store ptr %33, ptr %7, align 8
  br label %17, !llvm.loop !11

34:                                               ; preds = %17
  %35 = load ptr, ptr %3, align 8
  %36 = call noundef ptr @_ZL7gc_dataPK7nmethod(ptr noundef %35)
  %37 = call noundef ptr @_ZNK12XNMethodData4oopsEv(ptr noundef nonnull align 8 dereferenceable(120) %36)
  store ptr %37, ptr %8, align 8
  %38 = load ptr, ptr %8, align 8
  %39 = call noundef ptr @_ZNK16XNMethodDataOops16immediates_beginEv(ptr noundef nonnull align 8 dereferenceable(9) %38)
  store ptr %39, ptr %9, align 8
  %40 = load ptr, ptr %8, align 8
  %41 = call noundef ptr @_ZNK16XNMethodDataOops14immediates_endEv(ptr noundef nonnull align 8 dereferenceable(9) %40)
  store ptr %41, ptr %10, align 8
  %42 = load ptr, ptr %9, align 8
  store ptr %42, ptr %11, align 8
  br label %43

43:                                               ; preds = %60, %34
  %44 = load ptr, ptr %11, align 8
  %45 = load ptr, ptr %10, align 8
  %46 = icmp ult ptr %44, %45
  br i1 %46, label %47, label %63

47:                                               ; preds = %43
  %48 = load ptr, ptr %11, align 8
  %49 = load ptr, ptr %48, align 8
  %50 = call noundef ptr @_ZN8Universe12non_oop_wordEv()
  %51 = icmp ne ptr %49, %50
  br i1 %51, label %52, label %59

52:                                               ; preds = %47
  %53 = load ptr, ptr %4, align 8
  %54 = load ptr, ptr %11, align 8
  %55 = load ptr, ptr %54, align 8
  %56 = load ptr, ptr %53, align 8
  %57 = getelementptr inbounds ptr, ptr %56, i64 0
  %58 = load ptr, ptr %57, align 8
  call void %58(ptr noundef nonnull align 8 dereferenceable(8) %53, ptr noundef %55)
  br label %59

59:                                               ; preds = %52, %47
  br label %60

60:                                               ; preds = %59
  %61 = load ptr, ptr %11, align 8
  %62 = getelementptr inbounds ptr, ptr %61, i32 1
  store ptr %62, ptr %11, align 8
  br label %43, !llvm.loop !12

63:                                               ; preds = %43
  %64 = load ptr, ptr %8, align 8
  %65 = call noundef zeroext i1 @_ZNK16XNMethodDataOops18has_non_immediatesEv(ptr noundef nonnull align 8 dereferenceable(9) %64)
  br i1 %65, label %66, label %68

66:                                               ; preds = %63
  %67 = load ptr, ptr %3, align 8
  call void @_ZN7nmethod19fix_oop_relocationsEv(ptr noundef nonnull align 8 dereferenceable(214) %67)
  br label %68

68:                                               ; preds = %66, %63
  ret void
}