; Function Attrs: mustprogress nounwind uwtable
define hidden void @_ZN8XNMethod21nmethod_oops_do_innerEP7nmethodP10OopClosure(ptr noundef %0, ptr noundef %1) local_unnamed_addr #0 align 2 {
  %3 = getelementptr inbounds i8, ptr %0, i64 40
  %4 = load i32, ptr %3, align 8
  %5 = sext i32 %4 to i64
  %6 = getelementptr inbounds i8, ptr %0, i64 %5
  %7 = getelementptr inbounds i8, ptr %0, i64 180
  %8 = load i16, ptr %7, align 4
  %9 = zext i16 %8 to i64
  %10 = getelementptr inbounds i8, ptr %6, i64 %9
  %.not27 = icmp eq i16 %8, 0
  br i1 %.not27, label %._crit_edge, label %.lr.ph

.lr.ph:                                           ; preds = %2, %15
  %.02122 = phi ptr [ %16, %15 ], [ %6, %2 ]
  %11 = tail call noundef zeroext i1 @_ZN8Universe21contains_non_oop_wordEPv(ptr noundef nonnull %.02122) #10
  br i1 %11, label %15, label %12

12:                                               ; preds = %.lr.ph
  %13 = load ptr, ptr %1, align 8
  %14 = load ptr, ptr %13, align 8
  tail call void %14(ptr noundef nonnull align 8 dereferenceable(8) %1, ptr noundef nonnull %.02122) #10
  br label %15

15:                                               ; preds = %.lr.ph, %12
  %16 = getelementptr inbounds i8, ptr %.02122, i64 8
  %17 = icmp ult ptr %16, %10
  br i1 %17, label %.lr.ph, label %._crit_edge, !llvm.loop !16

._crit_edge:                                      ; preds = %15, %2
  %18 = getelementptr i8, ptr %0, i64 112
  %.val = load ptr, ptr %18, align 8
  %19 = tail call noundef ptr @_ZNK12XNMethodData4oopsEv(ptr noundef nonnull align 8 dereferenceable(120) %.val) #10
  %20 = tail call noundef ptr @_ZNK16XNMethodDataOops16immediates_beginEv(ptr noundef nonnull align 8 dereferenceable(9) %19) #10
  %21 = tail call noundef ptr @_ZNK16XNMethodDataOops14immediates_endEv(ptr noundef nonnull align 8 dereferenceable(9) %19) #10
  %22 = icmp ult ptr %20, %21
  br i1 %22, label %.lr.ph25, label %._crit_edge26

.lr.ph25:                                         ; preds = %._crit_edge, %29
  %.023 = phi ptr [ %30, %29 ], [ %20, %._crit_edge ]
  %23 = load ptr, ptr %.023, align 8
  %24 = tail call noundef ptr @_ZN8Universe12non_oop_wordEv() #10
  %.not = icmp eq ptr %23, %24
  br i1 %.not, label %29, label %25

25:                                               ; preds = %.lr.ph25
  %26 = load ptr, ptr %.023, align 8
  %27 = load ptr, ptr %1, align 8
  %28 = load ptr, ptr %27, align 8
  tail call void %28(ptr noundef nonnull align 8 dereferenceable(8) %1, ptr noundef %26) #10
  br label %29

29:                                               ; preds = %.lr.ph25, %25
  %30 = getelementptr inbounds i8, ptr %.023, i64 8
  %31 = icmp ult ptr %30, %21
  br i1 %31, label %.lr.ph25, label %._crit_edge26, !llvm.loop !17

._crit_edge26:                                    ; preds = %29, %._crit_edge
  %32 = tail call noundef zeroext i1 @_ZNK16XNMethodDataOops18has_non_immediatesEv(ptr noundef nonnull align 8 dereferenceable(9) %19) #10
  br i1 %32, label %33, label %34

33:                                               ; preds = %._crit_edge26
  tail call void @_ZN7nmethod19fix_oop_relocationsEPhS0_b(ptr noundef nonnull align 8 dereferenceable(214) %0, ptr noundef null, ptr noundef null, i1 noundef zeroext false) #10
  br label %34

34:                                               ; preds = %33, %._crit_edge26
  ret void
}